target datalayout = "e-m:e-p270:32:32-p271:32:32-p272:64:64-i64:64-i128:128-f80:128-n8:16:32:64-S128"
target triple = "x86_64-pc-linux-gnu"

@_ZN3zmq13protocol_nameL3ipcE = internal constant [4 x i8] c"ipc\00", align 1
@_ZN3zmq13protocol_nameL4tipcE = internal constant [5 x i8] c"tipc\00", align 1
@.str.7 = private unnamed_addr constant [6 x i8] c"draft\00", align 1
@.str.8 = private unnamed_addr constant [3 x i8] c"WS\00", align 1
@.str.9 = private unnamed_addr constant [4 x i8] c"WSS\00", align 1

; Function Attrs: mustprogress nounwind uwtable
define i32 @zmq_has(ptr noundef %0) #0 {
  %2 = alloca i32, align 4
  %3 = alloca ptr, align 8
  store ptr %0, ptr %3, align 8, !tbaa !19
  %4 = load ptr, ptr %3, align 8, !tbaa !19
  %5 = call i32 @strcmp(ptr noundef %4, ptr noundef @_ZN3zmq13protocol_nameL3ipcE) #24
  %6 = icmp eq i32 %5, 0
  br i1 %6, label %7, label %8

7:                                                ; preds = %1
  store i32 1, ptr %2, align 4
  br label %29

8:                                                ; preds = %1
  %9 = load ptr, ptr %3, align 8, !tbaa !19
  %10 = call i32 @strcmp(ptr noundef %9, ptr noundef @_ZN3zmq13protocol_nameL4tipcE) #24
  %11 = icmp eq i32 %10, 0
  br i1 %11, label %12, label %13

12:                                               ; preds = %8
  store i32 1, ptr %2, align 4
  br label %29

13:                                               ; preds = %8
  %14 = load ptr, ptr %3, align 8, !tbaa !19
  %15 = call i32 @strcmp(ptr noundef %14, ptr noundef @.str.7) #24
  %16 = icmp eq i32 %15, 0
  br i1 %16, label %17, label %18

17:                                               ; preds = %13
  store i32 1, ptr %2, align 4
  br label %29

18:                                               ; preds = %13
  %19 = load ptr, ptr %3, align 8, !tbaa !19
  %20 = call i32 @strcmp(ptr noundef %19, ptr noundef @.str.8) #24
  %21 = icmp eq i32 %20, 0
  br i1 %21, label %22, label %23

22:                                               ; preds = %18
  store i32 1, ptr %2, align 4
  br label %29

23:                                               ; preds = %18
  %24 = load ptr, ptr %3, align 8, !tbaa !19
  %25 = call i32 @strcmp(ptr noundef %24, ptr noundef @.str.9) #24
  %26 = icmp eq i32 %25, 0
  br i1 %26, label %27, label %28

27:                                               ; preds = %23
  store i32 1, ptr %2, align 4
  br label %29

28:                                               ; preds = %23
  store i32 0, ptr %2, align 4
  br label %29

29:                                               ; preds = %28, %27, %22, %17, %12, %7
  %30 = load i32, ptr %2, align 4
  ret i32 %30
}