; Function Attrs: mustprogress nofree nounwind willreturn memory(argmem: read) uwtable
define range(i32 0, 2) i32 @zmq_has(ptr noundef readonly captures(none) %0) local_unnamed_addr #13 {
  %2 = tail call i32 @strcmp(ptr noundef nonnull dereferenceable(1) %0, ptr noundef nonnull dereferenceable(4) @_ZN3zmq13protocol_nameL3ipcE) #27
  %3 = icmp eq i32 %2, 0
  br i1 %3, label %18, label %4

4:                                                ; preds = %1
  %5 = tail call i32 @strcmp(ptr noundef nonnull dereferenceable(1) %0, ptr noundef nonnull dereferenceable(5) @_ZN3zmq13protocol_nameL4tipcE) #27
  %6 = icmp eq i32 %5, 0
  br i1 %6, label %18, label %7

7:                                                ; preds = %4
  %8 = tail call i32 @strcmp(ptr noundef nonnull dereferenceable(1) %0, ptr noundef nonnull dereferenceable(6) @.str.7) #27
  %9 = icmp eq i32 %8, 0
  br i1 %9, label %18, label %sub_0

sub_0:                                            ; preds = %7
  %10 = load i8, ptr %0, align 1
  %.not = icmp eq i8 %10, 87
  br i1 %.not, label %sub_1, label %.tail.thread

sub_1:                                            ; preds = %sub_0
  %11 = getelementptr inbounds nuw i8, ptr %0, i64 1
  %12 = load i8, ptr %11, align 1
  %.not5 = icmp eq i8 %12, 83
  br i1 %.not5, label %.tail, label %.tail.thread

.tail:                                            ; preds = %sub_1
  %13 = getelementptr inbounds nuw i8, ptr %0, i64 2
  %14 = load i8, ptr %13, align 1
  %15 = icmp eq i8 %14, 0
  br i1 %15, label %18, label %.tail.thread

.tail.thread:                                     ; preds = %sub_1, %sub_0, %.tail
  %16 = tail call i32 @strcmp(ptr noundef nonnull dereferenceable(1) %0, ptr noundef nonnull dereferenceable(4) @.str.9) #27
  %17 = icmp eq i32 %16, 0
  %. = zext i1 %17 to i32
  br label %18

18:                                               ; preds = %.tail.thread, %.tail, %7, %4, %1
  %.0 = phi i32 [ 1, %1 ], [ 1, %4 ], [ 1, %7 ], [ 1, %.tail ], [ %., %.tail.thread ]
  ret i32 %.0
}